target datalayout = "e-m:e-p270:32:32-p271:32:32-p272:64:64-i64:64-i128:128-f80:128-n8:16:32:64-S128"
target triple = "x86_64-pc-linux-gnu"

%"class.llvm::SmallVectorBase" = type { ptr, i64, i64 }
%"class.llvm::GlobalValue" = type { %"class.llvm::Constant", ptr, i32, i32, ptr }
%"class.llvm::Constant" = type { %"class.llvm::User" }
%"class.llvm::User" = type { %"class.llvm::Value" }
%"class.llvm::Value" = type { i8, i8, i16, i32, ptr, ptr }
%"class.llvm::SmallString" = type { %"class.llvm::SmallVector.149" }
%"class.llvm::SmallVector.149" = type { %"class.llvm::SmallVectorImpl.146", %"struct.llvm::SmallVectorStorage.150" }
%"class.llvm::SmallVectorImpl.146" = type { %"class.llvm::SmallVectorTemplateBase.147" }
%"class.llvm::SmallVectorTemplateBase.147" = type { %"class.llvm::SmallVectorTemplateCommon.148" }
%"class.llvm::SmallVectorTemplateCommon.148" = type { %"class.llvm::SmallVectorBase" }
%"struct.llvm::SmallVectorStorage.150" = type { [128 x i8] }
%"class.llvm::Twine" = type <{ %"union.llvm::Twine::Child", %"union.llvm::Twine::Child", i8, i8, [6 x i8] }>
%"union.llvm::Twine::Child" = type { %struct.anon }
%struct.anon = type { ptr, i64 }
%"class.llvm::TargetLoweringObjectFile" = type { %"class.llvm::MCObjectFileInfo", ptr, i8, i8, i8, i8, i32, i32, i32, i32, ptr, ptr, ptr }
%"class.llvm::MCObjectFileInfo" = type { ptr, i8, i8, i8, i32, i32, ptr, ptr, ptr, ptr, ptr, ptr, ptr, ptr, ptr, ptr, ptr, ptr, ptr, ptr, ptr, ptr, ptr, ptr, ptr, ptr, ptr, ptr, ptr, ptr, ptr, ptr, ptr, ptr, ptr, ptr, ptr, ptr, ptr, ptr, ptr, ptr, ptr, ptr, ptr, ptr, ptr, ptr, ptr, ptr, ptr, ptr, ptr, ptr, ptr, ptr, ptr, ptr, ptr, ptr, ptr, ptr, ptr, ptr, ptr, ptr, ptr, ptr, ptr, ptr, ptr, ptr, ptr, ptr, ptr, ptr, ptr, ptr, ptr, ptr, ptr, ptr, ptr, ptr, ptr, ptr, ptr, ptr, ptr, ptr, ptr, ptr, ptr, ptr, ptr, ptr, ptr, ptr, ptr, ptr, ptr, ptr, ptr, ptr, %"struct.std::array", i8, ptr }
%"struct.std::array" = type { [11 x ptr] }

; Function Attrs: mustprogress nounwind uwtable
define linkonce_odr hidden noundef ptr @_ZNK4llvm25SmallVectorTemplateCommonIcvE10getFirstElEv(ptr noundef nonnull align 8 dereferenceable(24) %0) #0 comdat align 2 {
  %2 = alloca ptr, align 8
  store ptr %0, ptr %2, align 8
  %3 = load ptr, ptr %2, align 8
  %4 = getelementptr inbounds i8, ptr %3, i64 24
  ret ptr %4
}

; Function Attrs: mustprogress nounwind uwtable
define linkonce_odr hidden void @_ZN4llvm25SmallVectorTemplateCommonIcvEC2Em(ptr noundef nonnull align 8 dereferenceable(24) %0, i64 noundef %1) unnamed_addr #0 comdat align 2 {
  %3 = alloca ptr, align 8
  %4 = alloca i64, align 8
  store ptr %0, ptr %3, align 8
  store i64 %1, ptr %4, align 8
  %5 = load ptr, ptr %3, align 8
  %6 = call noundef ptr @_ZNK4llvm25SmallVectorTemplateCommonIcvE10getFirstElEv(ptr noundef nonnull align 8 dereferenceable(24) %5)
  %7 = load i64, ptr %4, align 8
  call void @_ZN4llvm15SmallVectorBaseImEC2EPvm(ptr noundef nonnull align 8 dereferenceable(24) %5, ptr noundef %6, i64 noundef %7)
  ret void
}

; Function Attrs: mustprogress nounwind uwtable
define linkonce_odr hidden noundef zeroext i1 @_ZNK4llvm25SmallVectorTemplateCommonIcvE7isSmallEv(ptr noundef nonnull align 8 dereferenceable(24) %0) #0 comdat align 2 {
  %2 = alloca ptr, align 8
  store ptr %0, ptr %2, align 8
  %3 = load ptr, ptr %2, align 8
  %4 = getelementptr inbounds nuw %"class.llvm::SmallVectorBase", ptr %3, i32 0, i32 0
  %5 = load ptr, ptr %4, align 8
  %6 = call noundef ptr @_ZNK4llvm25SmallVectorTemplateCommonIcvE10getFirstElEv(ptr noundef nonnull align 8 dereferenceable(24) %3)
  %7 = icmp eq ptr %5, %6
  ret i1 %7
}

; Function Attrs: mustprogress nounwind uwtable
define linkonce_odr hidden void @_ZN4llvm23SmallVectorTemplateBaseIcLb1EEC2Em(ptr noundef nonnull align 8 dereferenceable(24) %0, i64 noundef %1) unnamed_addr #0 comdat align 2 {
  %3 = alloca ptr, align 8
  %4 = alloca i64, align 8
  store ptr %0, ptr %3, align 8
  store i64 %1, ptr %4, align 8
  %5 = load ptr, ptr %3, align 8
  %6 = load i64, ptr %4, align 8
  call void @_ZN4llvm25SmallVectorTemplateCommonIcvEC2Em(ptr noundef nonnull align 8 dereferenceable(24) %5, i64 noundef %6)
  ret void
}

; Function Attrs: mustprogress nounwind uwtable
define linkonce_odr hidden void @_ZN4llvm15SmallVectorImplIcED2Ev(ptr noundef nonnull align 8 dereferenceable(24) %0) unnamed_addr #0 comdat align 2 {
  %2 = alloca ptr, align 8
  store ptr %0, ptr %2, align 8
  %3 = load ptr, ptr %2, align 8
  %4 = call noundef zeroext i1 @_ZNK4llvm25SmallVectorTemplateCommonIcvE7isSmallEv(ptr noundef nonnull align 8 dereferenceable(24) %3)
  br i1 %4, label %7, label %5

5:                                                ; preds = %1
  %6 = call noundef ptr @_ZN4llvm25SmallVectorTemplateCommonIcvE5beginEv(ptr noundef nonnull align 8 dereferenceable(24) %3)
  call void @free(ptr noundef %6) #9
  br label %7

7:                                                ; preds = %5, %1
  ret void
}

; Function Attrs: mustprogress nounwind uwtable
define linkonce_odr hidden void @_ZN4llvm23SmallVectorTemplateBaseIcLb1EE13destroy_rangeEPcS2_(ptr noundef %0, ptr noundef %1) #0 comdat align 2 {
  %3 = alloca ptr, align 8
  %4 = alloca ptr, align 8
  store ptr %0, ptr %3, align 8
  store ptr %1, ptr %4, align 8
  ret void
}

; Function Attrs: mustprogress nounwind uwtable
define linkonce_odr hidden noundef ptr @_ZN4llvm25SmallVectorTemplateCommonIcvE3endEv(ptr noundef nonnull align 8 dereferenceable(24) %0) #0 comdat align 2 {
  %2 = alloca ptr, align 8
  store ptr %0, ptr %2, align 8
  %3 = load ptr, ptr %2, align 8
  %4 = call noundef ptr @_ZN4llvm25SmallVectorTemplateCommonIcvE5beginEv(ptr noundef nonnull align 8 dereferenceable(24) %3)
  %5 = call noundef i64 @_ZNK4llvm15SmallVectorBaseImE4sizeEv(ptr noundef nonnull align 8 dereferenceable(24) %3)
  %6 = getelementptr inbounds i8, ptr %4, i64 %5
  ret ptr %6
}

; Function Attrs: mustprogress nounwind uwtable
define linkonce_odr hidden noundef ptr @_ZN4llvm25SmallVectorTemplateCommonIcvE5beginEv(ptr noundef nonnull align 8 dereferenceable(24) %0) #0 comdat align 2 {
  %2 = alloca ptr, align 8
  store ptr %0, ptr %2, align 8
  %3 = load ptr, ptr %2, align 8
  %4 = getelementptr inbounds nuw %"class.llvm::SmallVectorBase", ptr %3, i32 0, i32 0
  %5 = load ptr, ptr %4, align 8
  ret ptr %5
}

; Function Attrs: mustprogress nounwind uwtable
define linkonce_odr hidden noundef ptr @_ZNK4llvm25SmallVectorTemplateCommonIcvE5beginEv(ptr noundef nonnull align 8 dereferenceable(24) %0) #0 comdat align 2 {
  %2 = alloca ptr, align 8
  store ptr %0, ptr %2, align 8
  %3 = load ptr, ptr %2, align 8
  %4 = getelementptr inbounds nuw %"class.llvm::SmallVectorBase", ptr %3, i32 0, i32 0
  %5 = load ptr, ptr %4, align 8
  ret ptr %5
}

; Function Attrs: mustprogress nounwind uwtable
define linkonce_odr hidden noundef zeroext i1 @_ZN4llvm11GlobalValue16isPrivateLinkageENS0_12LinkageTypesE(i32 noundef %0) #0 comdat align 2 {
  %2 = alloca i32, align 4
  store i32 %0, ptr %2, align 4
  %3 = load i32, ptr %2, align 4
  %4 = icmp eq i32 %3, 8
  ret i1 %4
}

; Function Attrs: mustprogress nounwind uwtable
define linkonce_odr hidden noundef i32 @_ZNK4llvm11GlobalValue10getLinkageEv(ptr noundef nonnull align 8 dereferenceable(48) %0) #0 comdat align 2 {
  %2 = alloca ptr, align 8
  store ptr %0, ptr %2, align 8
  %3 = load ptr, ptr %2, align 8
  %4 = getelementptr inbounds nuw %"class.llvm::GlobalValue", ptr %3, i32 0, i32 2
  %5 = load i32, ptr %4, align 8
  %6 = and i32 %5, 15
  ret i32 %6
}

; Function Attrs: mustprogress nounwind uwtable
define linkonce_odr hidden void @_ZN4llvm15SmallVectorImplIcEC2Ej(ptr noundef nonnull align 8 dereferenceable(24) %0, i32 noundef %1) unnamed_addr #0 comdat align 2 {
  %3 = alloca ptr, align 8
  %4 = alloca i32, align 4
  store ptr %0, ptr %3, align 8
  store i32 %1, ptr %4, align 4
  %5 = load ptr, ptr %3, align 8
  %6 = load i32, ptr %4, align 4
  %7 = zext i32 %6 to i64
  call void @_ZN4llvm23SmallVectorTemplateBaseIcLb1EEC2Em(ptr noundef nonnull align 8 dereferenceable(24) %5, i64 noundef %7)
  ret void
}

; Function Attrs: mustprogress nounwind uwtable
define linkonce_odr hidden void @_ZN4llvm11SmallVectorIcLj128EED2Ev(ptr noundef nonnull align 8 dereferenceable(152) %0) unnamed_addr #0 comdat align 2 {
  %2 = alloca ptr, align 8
  store ptr %0, ptr %2, align 8
  %3 = load ptr, ptr %2, align 8
  %4 = call noundef ptr @_ZN4llvm25SmallVectorTemplateCommonIcvE5beginEv(ptr noundef nonnull align 8 dereferenceable(24) %3)
  %5 = call noundef ptr @_ZN4llvm25SmallVectorTemplateCommonIcvE3endEv(ptr noundef nonnull align 8 dereferenceable(24) %3)
  call void @_ZN4llvm23SmallVectorTemplateBaseIcLb1EE13destroy_rangeEPcS2_(ptr noundef %4, ptr noundef %5)
  call void @_ZN4llvm15SmallVectorImplIcED2Ev(ptr noundef nonnull align 8 dereferenceable(24) %3) #9
  ret void
}

; Function Attrs: mustprogress nounwind uwtable
define linkonce_odr hidden noundef ptr @_ZNK4llvm25SmallVectorTemplateCommonIcvE4dataEv(ptr noundef nonnull align 8 dereferenceable(24) %0) #0 comdat align 2 {
  %2 = alloca ptr, align 8
  store ptr %0, ptr %2, align 8
  %3 = load ptr, ptr %2, align 8
  %4 = call noundef ptr @_ZNK4llvm25SmallVectorTemplateCommonIcvE5beginEv(ptr noundef nonnull align 8 dereferenceable(24) %3)
  ret ptr %4
}

; Function Attrs: mustprogress nounwind uwtable
define linkonce_odr hidden noundef zeroext i1 @_ZNK4llvm11GlobalValue17hasPrivateLinkageEv(ptr noundef nonnull align 8 dereferenceable(48) %0) #0 comdat align 2 {
  %2 = alloca ptr, align 8
  store ptr %0, ptr %2, align 8
  %3 = load ptr, ptr %2, align 8
  %4 = call noundef i32 @_ZNK4llvm11GlobalValue10getLinkageEv(ptr noundef nonnull align 8 dereferenceable(48) %3)
  %5 = call noundef zeroext i1 @_ZN4llvm11GlobalValue16isPrivateLinkageENS0_12LinkageTypesE(i32 noundef %4)
  ret i1 %5
}

; Function Attrs: mustprogress nounwind uwtable
define linkonce_odr hidden void @_ZN4llvm11SmallVectorIcLj128EEC2Ev(ptr noundef nonnull align 8 dereferenceable(152) %0) unnamed_addr #0 comdat align 2 {
  %2 = alloca ptr, align 8
  store ptr %0, ptr %2, align 8
  %3 = load ptr, ptr %2, align 8
  call void @_ZN4llvm15SmallVectorImplIcEC2Ej(ptr noundef nonnull align 8 dereferenceable(24) %3, i32 noundef 128)
  ret void
}

; Function Attrs: mustprogress nounwind uwtable
define linkonce_odr hidden void @_ZN4llvm11SmallStringILj128EED2Ev(ptr noundef nonnull align 8 dereferenceable(152) %0) unnamed_addr #0 comdat align 2 {
  %2 = alloca ptr, align 8
  store ptr %0, ptr %2, align 8
  %3 = load ptr, ptr %2, align 8
  call void @_ZN4llvm11SmallVectorIcLj128EED2Ev(ptr noundef nonnull align 8 dereferenceable(152) %3) #9
  ret void
}

; Function Attrs: mustprogress nounwind uwtable
define linkonce_odr hidden void @_ZN4llvm5TwineC2ERKNS_15SmallVectorImplIcEE(ptr noundef nonnull align 8 dereferenceable(34) %0, ptr noundef nonnull align 8 dereferenceable(24) %1) unnamed_addr #0 comdat align 2 {
  %3 = alloca ptr, align 8
  %4 = alloca ptr, align 8
  store ptr %0, ptr %3, align 8
  store ptr %1, ptr %4, align 8
  %5 = load ptr, ptr %3, align 8
  %6 = getelementptr inbounds nuw %"class.llvm::Twine", ptr %5, i32 0, i32 2
  store i8 5, ptr %6, align 8
  %7 = getelementptr inbounds nuw %"class.llvm::Twine", ptr %5, i32 0, i32 3
  store i8 1, ptr %7, align 1
  %8 = load ptr, ptr %4, align 8
  %9 = call noundef ptr @_ZNK4llvm25SmallVectorTemplateCommonIcvE4dataEv(ptr noundef nonnull align 8 dereferenceable(24) %8)
  %10 = getelementptr inbounds nuw %"class.llvm::Twine", ptr %5, i32 0, i32 0
  %11 = getelementptr inbounds nuw %struct.anon, ptr %10, i32 0, i32 0
  store ptr %9, ptr %11, align 8
  %12 = load ptr, ptr %4, align 8
  %13 = call noundef i64 @_ZNK4llvm15SmallVectorBaseImE4sizeEv(ptr noundef nonnull align 8 dereferenceable(24) %12)
  %14 = getelementptr inbounds nuw %"class.llvm::Twine", ptr %5, i32 0, i32 0
  %15 = getelementptr inbounds nuw %struct.anon, ptr %14, i32 0, i32 1
  store i64 %13, ptr %15, align 8
  ret void
}

; Function Attrs: mustprogress nounwind uwtable
define linkonce_odr hidden noundef nonnull align 8 dereferenceable(2432) ptr @_ZNK4llvm16MCObjectFileInfo10getContextEv(ptr noundef nonnull align 8 dereferenceable(912) %0) #0 comdat align 2 {
  %2 = alloca ptr, align 8
  store ptr %0, ptr %2, align 8
  %3 = load ptr, ptr %2, align 8
  %4 = getelementptr inbounds nuw %"class.llvm::MCObjectFileInfo", ptr %3, i32 0, i32 106
  %5 = load ptr, ptr %4, align 8
  ret ptr %5
}

; Function Attrs: mustprogress nounwind uwtable
define dso_local void @_ZNK4llvm13TargetMachine17getNameWithPrefixERNS_15SmallVectorImplIcEEPKNS_11GlobalValueERNS_7ManglerEb(ptr noundef nonnull align 8 dereferenceable(1232) %0, ptr noundef nonnull align 8 dereferenceable(24) %1, ptr noundef %2, ptr noundef nonnull align 8 dereferenceable(24) %3, i1 noundef zeroext %4) #0 align 2 {
  %6 = alloca ptr, align 8
  %7 = alloca ptr, align 8
  %8 = alloca ptr, align 8
  %9 = alloca ptr, align 8
  %10 = alloca i8, align 1
  %11 = alloca ptr, align 8
  store ptr %0, ptr %6, align 8
  store ptr %1, ptr %7, align 8
  store ptr %2, ptr %8, align 8
  store ptr %3, ptr %9, align 8
  %12 = zext i1 %4 to i8
  store i8 %12, ptr %10, align 1
  %13 = load ptr, ptr %6, align 8
  %14 = load i8, ptr %10, align 1
  %15 = trunc i8 %14 to i1
  br i1 %15, label %19, label %16

16:                                               ; preds = %5
  %17 = load ptr, ptr %8, align 8
  %18 = call noundef zeroext i1 @_ZNK4llvm11GlobalValue17hasPrivateLinkageEv(ptr noundef nonnull align 8 dereferenceable(48) %17)
  br i1 %18, label %23, label %19

19:                                               ; preds = %16, %5
  %20 = load ptr, ptr %9, align 8
  %21 = load ptr, ptr %7, align 8
  %22 = load ptr, ptr %8, align 8
  call void @_ZNK4llvm7Mangler17getNameWithPrefixERNS_15SmallVectorImplIcEEPKNS_11GlobalValueEb(ptr noundef nonnull align 8 dereferenceable(24) %20, ptr noundef nonnull align 8 dereferenceable(24) %21, ptr noundef %22, i1 noundef zeroext false)
  br label %34

23:                                               ; preds = %16
  %24 = load ptr, ptr %13, align 8
  %25 = getelementptr inbounds ptr, ptr %24, i64 3
  %26 = load ptr, ptr %25, align 8
  %27 = call noundef ptr %26(ptr noundef nonnull align 8 dereferenceable(1232) %13)
  store ptr %27, ptr %11, align 8
  %28 = load ptr, ptr %11, align 8
  %29 = load ptr, ptr %7, align 8
  %30 = load ptr, ptr %8, align 8
  %31 = load ptr, ptr %28, align 8
  %32 = getelementptr inbounds ptr, ptr %31, i64 10
  %33 = load ptr, ptr %32, align 8
  call void %33(ptr noundef nonnull align 8 dereferenceable(968) %28, ptr noundef nonnull align 8 dereferenceable(24) %29, ptr noundef %30, ptr noundef nonnull align 8 dereferenceable(1232) %13)
  br label %34

34:                                               ; preds = %23, %19
  ret void
}

; Function Attrs: mustprogress nounwind uwtable
define linkonce_odr hidden noundef nonnull align 8 dereferenceable(24) ptr @_ZNK4llvm24TargetLoweringObjectFile10getManglerEv(ptr noundef nonnull align 8 dereferenceable(968) %0) #0 comdat align 2 {
  %2 = alloca ptr, align 8
  store ptr %0, ptr %2, align 8
  %3 = load ptr, ptr %2, align 8
  %4 = getelementptr inbounds nuw %"class.llvm::TargetLoweringObjectFile", ptr %3, i32 0, i32 1
  %5 = load ptr, ptr %4, align 8
  ret ptr %5
}

; Function Attrs: mustprogress nounwind uwtable
define linkonce_odr hidden void @_ZN4llvm11SmallStringILj128EEC2Ev(ptr noundef nonnull align 8 dereferenceable(152) %0) unnamed_addr #0 comdat align 2 {
  %2 = alloca ptr, align 8
  store ptr %0, ptr %2, align 8
  %3 = load ptr, ptr %2, align 8
  call void @_ZN4llvm11SmallVectorIcLj128EEC2Ev(ptr noundef nonnull align 8 dereferenceable(152) %3)
  ret void
}

; Function Attrs: mustprogress nounwind uwtable
define dso_local noundef ptr @_ZNK4llvm13TargetMachine9getSymbolEPKNS_11GlobalValueE(ptr noundef nonnull align 8 dereferenceable(1232) %0, ptr noundef %1) #0 align 2 {
  %3 = alloca ptr, align 8
  %4 = alloca ptr, align 8
  %5 = alloca ptr, align 8
  %6 = alloca ptr, align 8
  %7 = alloca ptr, align 8
  %8 = alloca %"class.llvm::SmallString", align 8
  %9 = alloca %"class.llvm::Twine", align 8
  store ptr %0, ptr %4, align 8
  store ptr %1, ptr %5, align 8
  %10 = load ptr, ptr %4, align 8
  %11 = load ptr, ptr %10, align 8
  %12 = getelementptr inbounds ptr, ptr %11, i64 3
  %13 = load ptr, ptr %12, align 8
  %14 = call noundef ptr %13(ptr noundef nonnull align 8 dereferenceable(1232) %10)
  store ptr %14, ptr %6, align 8
  %15 = load ptr, ptr %6, align 8
  %16 = load ptr, ptr %5, align 8
  %17 = load ptr, ptr %15, align 8
  %18 = getelementptr inbounds ptr, ptr %17, i64 29
  %19 = load ptr, ptr %18, align 8
  %20 = call noundef ptr %19(ptr noundef nonnull align 8 dereferenceable(968) %15, ptr noundef %16, ptr noundef nonnull align 8 dereferenceable(1232) %10)
  store ptr %20, ptr %7, align 8
  %21 = load ptr, ptr %7, align 8
  %22 = icmp ne ptr %21, null
  br i1 %22, label %23, label %25

23:                                               ; preds = %2
  %24 = load ptr, ptr %7, align 8
  store ptr %24, ptr %3, align 8
  br label %32

25:                                               ; preds = %2
  call void @_ZN4llvm11SmallStringILj128EEC2Ev(ptr noundef nonnull align 8 dereferenceable(152) %8)
  %26 = load ptr, ptr %5, align 8
  %27 = load ptr, ptr %6, align 8
  %28 = call noundef nonnull align 8 dereferenceable(24) ptr @_ZNK4llvm24TargetLoweringObjectFile10getManglerEv(ptr noundef nonnull align 8 dereferenceable(968) %27)
  call void @_ZNK4llvm13TargetMachine17getNameWithPrefixERNS_15SmallVectorImplIcEEPKNS_11GlobalValueERNS_7ManglerEb(ptr noundef nonnull align 8 dereferenceable(1232) %10, ptr noundef nonnull align 8 dereferenceable(24) %8, ptr noundef %26, ptr noundef nonnull align 8 dereferenceable(24) %28, i1 noundef zeroext false)
  %29 = load ptr, ptr %6, align 8
  %30 = call noundef nonnull align 8 dereferenceable(2432) ptr @_ZNK4llvm16MCObjectFileInfo10getContextEv(ptr noundef nonnull align 8 dereferenceable(912) %29)
  call void @_ZN4llvm5TwineC2ERKNS_15SmallVectorImplIcEE(ptr noundef nonnull align 8 dereferenceable(34) %9, ptr noundef nonnull align 8 dereferenceable(24) %8)
  %31 = call noundef ptr @_ZN4llvm9MCContext17getOrCreateSymbolERKNS_5TwineE(ptr noundef nonnull align 8 dereferenceable(2432) %30, ptr noundef nonnull align 8 dereferenceable(34) %9)
  store ptr %31, ptr %3, align 8
  call void @_ZN4llvm11SmallStringILj128EED2Ev(ptr noundef nonnull align 8 dereferenceable(152) %8) #9
  br label %32

32:                                               ; preds = %25, %23
  %33 = load ptr, ptr %3, align 8
  ret ptr %33
}