; Function Attrs: mustprogress nounwind uwtable
define dso_local noundef ptr @_ZNK4llvm13TargetMachine9getSymbolEPKNS_11GlobalValueE(ptr noundef nonnull align 8 dereferenceable(1232) %0, ptr noundef %1) local_unnamed_addr #0 align 2 {
  %3 = alloca %"class.llvm::SmallString", align 8
  %4 = alloca %"class.llvm::Twine", align 8
  %5 = load ptr, ptr %0, align 8
  %6 = getelementptr inbounds i8, ptr %5, i64 24
  %7 = load ptr, ptr %6, align 8
  %8 = tail call noundef ptr %7(ptr noundef nonnull align 8 dereferenceable(1232) %0) #15
  %9 = load ptr, ptr %8, align 8
  %10 = getelementptr inbounds i8, ptr %9, i64 232
  %11 = load ptr, ptr %10, align 8
  %12 = tail call noundef ptr %11(ptr noundef nonnull align 8 dereferenceable(968) %8, ptr noundef %1, ptr noundef nonnull align 8 dereferenceable(1232) %0) #15
  %.not = icmp eq ptr %12, null
  br i1 %.not, label %13, label %_ZN4llvm11SmallStringILj128EED2Ev.exit

13:                                               ; preds = %2
  %14 = getelementptr inbounds i8, ptr %3, i64 24
  call void @_ZN4llvm15SmallVectorBaseImEC2EPvm(ptr noundef nonnull align 8 dereferenceable(24) %3, ptr noundef nonnull %14, i64 noundef 128) #15
  %15 = getelementptr inbounds nuw i8, ptr %1, i64 32
  %16 = load i32, ptr %15, align 8
  %17 = and i32 %16, 15
  %18 = icmp eq i32 %17, 8
  br i1 %18, label %22, label %19

19:                                               ; preds = %13
  %20 = getelementptr inbounds nuw i8, ptr %8, i64 912
  %21 = load ptr, ptr %20, align 8
  call void @_ZNK4llvm7Mangler17getNameWithPrefixERNS_15SmallVectorImplIcEEPKNS_11GlobalValueEb(ptr noundef nonnull align 8 dereferenceable(24) %21, ptr noundef nonnull align 8 dereferenceable(24) %3, ptr noundef nonnull %1, i1 noundef zeroext false) #15
  br label %_ZNK4llvm13TargetMachine17getNameWithPrefixERNS_15SmallVectorImplIcEEPKNS_11GlobalValueERNS_7ManglerEb.exit

22:                                               ; preds = %13
  %23 = load ptr, ptr %0, align 8
  %24 = getelementptr inbounds i8, ptr %23, i64 24
  %25 = load ptr, ptr %24, align 8
  %26 = call noundef ptr %25(ptr noundef nonnull align 8 dereferenceable(1232) %0) #15
  %27 = load ptr, ptr %26, align 8
  %28 = getelementptr inbounds i8, ptr %27, i64 80
  %29 = load ptr, ptr %28, align 8
  call void %29(ptr noundef nonnull align 8 dereferenceable(968) %26, ptr noundef nonnull align 8 dereferenceable(24) %3, ptr noundef nonnull %1, ptr noundef nonnull align 8 dereferenceable(1232) %0) #15
  br label %_ZNK4llvm13TargetMachine17getNameWithPrefixERNS_15SmallVectorImplIcEEPKNS_11GlobalValueERNS_7ManglerEb.exit

_ZNK4llvm13TargetMachine17getNameWithPrefixERNS_15SmallVectorImplIcEEPKNS_11GlobalValueERNS_7ManglerEb.exit: ; preds = %19, %22
  %30 = getelementptr inbounds nuw i8, ptr %8, i64 904
  %31 = load ptr, ptr %30, align 8
  %32 = getelementptr inbounds nuw i8, ptr %4, i64 32
  store i8 5, ptr %32, align 8
  %33 = getelementptr inbounds nuw i8, ptr %4, i64 33
  store i8 1, ptr %33, align 1
  %34 = load ptr, ptr %3, align 8
  store ptr %34, ptr %4, align 8
  %35 = call noundef i64 @_ZNK4llvm15SmallVectorBaseImE4sizeEv(ptr noundef nonnull align 8 dereferenceable(24) %3) #15
  %36 = getelementptr inbounds nuw i8, ptr %4, i64 8
  store i64 %35, ptr %36, align 8
  %37 = call noundef ptr @_ZN4llvm9MCContext17getOrCreateSymbolERKNS_5TwineE(ptr noundef nonnull align 8 dereferenceable(2432) %31, ptr noundef nonnull align 8 dereferenceable(34) %4) #15
  %38 = call noundef i64 @_ZNK4llvm15SmallVectorBaseImE4sizeEv(ptr noundef nonnull align 8 dereferenceable(24) %3) #15
  %39 = load ptr, ptr %3, align 8
  %40 = icmp eq ptr %39, %14
  br i1 %40, label %_ZN4llvm11SmallStringILj128EED2Ev.exit, label %41

41:                                               ; preds = %_ZNK4llvm13TargetMachine17getNameWithPrefixERNS_15SmallVectorImplIcEEPKNS_11GlobalValueERNS_7ManglerEb.exit
  call void @free(ptr noundef %39) #15
  br label %_ZN4llvm11SmallStringILj128EED2Ev.exit

_ZN4llvm11SmallStringILj128EED2Ev.exit:           ; preds = %41, %_ZNK4llvm13TargetMachine17getNameWithPrefixERNS_15SmallVectorImplIcEEPKNS_11GlobalValueERNS_7ManglerEb.exit, %2
  %.0 = phi ptr [ %12, %2 ], [ %37, %_ZNK4llvm13TargetMachine17getNameWithPrefixERNS_15SmallVectorImplIcEEPKNS_11GlobalValueERNS_7ManglerEb.exit ], [ %37, %41 ]
  ret ptr %.0
}